target datalayout = "e-m:e-p270:32:32-p271:32:32-p272:64:64-i64:64-i128:128-f80:128-n8:16:32:64-S128"
target triple = "x86_64-pc-linux-gnu"

%struct.nameData = type { [64 x i8] }
%struct.HeapTupleData = type { i32, %struct.ItemPointerData, i32, ptr }
%struct.ItemPointerData = type { %struct.BlockIdData, i16 }
%struct.BlockIdData = type { i16, i16 }
%struct.HeapTupleHeaderData = type { %union.anon, %struct.ItemPointerData, i16, i16, i8, [0 x i8] }
%union.anon = type { %struct.HeapTupleFields }
%struct.HeapTupleFields = type { i32, i32, %union.anon.0 }
%union.anon.0 = type { i32 }
%struct.ScanKeyData = type { i32, i16, i16, i32, i32, %struct.FmgrInfo, i64 }
%struct.FmgrInfo = type { ptr, i32, i16, i8, i8, i8, ptr, ptr, ptr }
%struct.FormData_pg_publication = type { i32, %struct.nameData, i32, i8, i8, i8, i8, i8, i8, i8 }

; Function Attrs: inlinehint nounwind uwtable
define internal ptr @GETSTRUCT(ptr noundef %0) #2 {
  %2 = alloca ptr, align 8
  store ptr %0, ptr %2, align 8
  %3 = load ptr, ptr %2, align 8
  %4 = getelementptr inbounds nuw %struct.HeapTupleData, ptr %3, i32 0, i32 3
  %5 = load ptr, ptr %4, align 8
  %6 = load ptr, ptr %2, align 8
  %7 = getelementptr inbounds nuw %struct.HeapTupleData, ptr %6, i32 0, i32 3
  %8 = load ptr, ptr %7, align 8
  %9 = getelementptr inbounds nuw %struct.HeapTupleHeaderData, ptr %8, i32 0, i32 4
  %10 = load i8, ptr %9, align 2
  %11 = zext i8 %10 to i32
  %12 = sext i32 %11 to i64
  %13 = getelementptr inbounds i8, ptr %5, i64 %12
  ret ptr %13
}

; Function Attrs: inlinehint nounwind uwtable
define internal i64 @BoolGetDatum(i1 noundef zeroext %0) #2 {
  %2 = alloca i8, align 1
  %3 = zext i1 %0 to i8
  store i8 %3, ptr %2, align 1
  %4 = load i8, ptr %2, align 1, !range !4, !noundef !5
  %5 = trunc i8 %4 to i1
  %6 = select i1 %5, i32 1, i32 0
  %7 = sext i32 %6 to i64
  ret i64 %7
}

; Function Attrs: nounwind uwtable
define dso_local ptr @GetAllTablesPublications() #0 {
  %1 = alloca ptr, align 8
  %2 = alloca ptr, align 8
  %3 = alloca %struct.ScanKeyData, align 8
  %4 = alloca ptr, align 8
  %5 = alloca ptr, align 8
  %6 = alloca i32, align 4
  call void @llvm.lifetime.start.p0(i64 8, ptr %1) #7
  call void @llvm.lifetime.start.p0(i64 8, ptr %2) #7
  call void @llvm.lifetime.start.p0(i64 72, ptr %3) #7
  call void @llvm.lifetime.start.p0(i64 8, ptr %4) #7
  call void @llvm.lifetime.start.p0(i64 8, ptr %5) #7
  %7 = call ptr @table_open(i32 noundef 6104, i32 noundef 1)
  store ptr %7, ptr %2, align 8
  %8 = call i64 @BoolGetDatum(i1 noundef zeroext true)
  call void @ScanKeyInit(ptr noundef %3, i16 noundef signext 4, i16 noundef zeroext 3, i32 noundef 60, i64 noundef %8)
  %9 = load ptr, ptr %2, align 8
  %10 = call ptr @systable_beginscan(ptr noundef %9, i32 noundef 0, i1 noundef zeroext false, ptr noundef null, i32 noundef 1, ptr noundef %3)
  store ptr %10, ptr %4, align 8
  store ptr null, ptr %1, align 8
  br label %11

11:                                               ; preds = %15, %0
  %12 = load ptr, ptr %4, align 8
  %13 = call ptr @systable_getnext(ptr noundef %12)
  store ptr %13, ptr %5, align 8
  %14 = icmp ne ptr %13, null
  br i1 %14, label %15, label %23

15:                                               ; preds = %11
  call void @llvm.lifetime.start.p0(i64 4, ptr %6) #7
  %16 = load ptr, ptr %5, align 8
  %17 = call ptr @GETSTRUCT(ptr noundef %16)
  %18 = getelementptr inbounds nuw %struct.FormData_pg_publication, ptr %17, i32 0, i32 0
  %19 = load i32, ptr %18, align 4
  store i32 %19, ptr %6, align 4
  %20 = load ptr, ptr %1, align 8
  %21 = load i32, ptr %6, align 4
  %22 = call ptr @lappend_oid(ptr noundef %20, i32 noundef %21)
  store ptr %22, ptr %1, align 8
  call void @llvm.lifetime.end.p0(i64 4, ptr %6) #7
  br label %11, !llvm.loop !18

23:                                               ; preds = %11
  %24 = load ptr, ptr %4, align 8
  call void @systable_endscan(ptr noundef %24)
  %25 = load ptr, ptr %2, align 8
  call void @table_close(ptr noundef %25, i32 noundef 1)
  %26 = load ptr, ptr %1, align 8
  call void @llvm.lifetime.end.p0(i64 8, ptr %5) #7
  call void @llvm.lifetime.end.p0(i64 8, ptr %4) #7
  call void @llvm.lifetime.end.p0(i64 72, ptr %3) #7
  call void @llvm.lifetime.end.p0(i64 8, ptr %2) #7
  call void @llvm.lifetime.end.p0(i64 8, ptr %1) #7
  ret ptr %26
}