; Function Attrs: nounwind uwtable
define dso_local ptr @GetAllTablesPublications() local_unnamed_addr #0 {
  %1 = alloca %struct.ScanKeyData, align 8
  call void @llvm.lifetime.start.p0(i64 72, ptr nonnull %1) #6
  %2 = tail call ptr @table_open(i32 noundef 6104, i32 noundef 1) #6
  call void @ScanKeyInit(ptr noundef nonnull %1, i16 noundef signext 4, i16 noundef zeroext 3, i32 noundef 60, i64 noundef 1) #6
  %3 = call ptr @systable_beginscan(ptr noundef %2, i32 noundef 0, i1 noundef zeroext false, ptr noundef null, i32 noundef 1, ptr noundef nonnull %1) #6
  %4 = call ptr @systable_getnext(ptr noundef %3) #6
  %.not8 = icmp eq ptr %4, null
  br i1 %.not8, label %._crit_edge, label %.lr.ph

.lr.ph:                                           ; preds = %0, %.lr.ph
  %5 = phi ptr [ %13, %.lr.ph ], [ %4, %0 ]
  %.09 = phi ptr [ %12, %.lr.ph ], [ null, %0 ]
  %6 = getelementptr i8, ptr %5, i64 16
  %.val = load ptr, ptr %6, align 8
  %7 = getelementptr inbounds nuw i8, ptr %.val, i64 22
  %8 = load i8, ptr %7, align 2
  %9 = zext i8 %8 to i64
  %10 = getelementptr inbounds nuw i8, ptr %.val, i64 %9
  %11 = load i32, ptr %10, align 4
  %12 = call ptr @lappend_oid(ptr noundef %.09, i32 noundef %11) #6
  %13 = call ptr @systable_getnext(ptr noundef %3) #6
  %.not = icmp eq ptr %13, null
  br i1 %.not, label %._crit_edge, label %.lr.ph, !llvm.loop !15

._crit_edge:                                      ; preds = %.lr.ph, %0
  %.0.lcssa = phi ptr [ null, %0 ], [ %12, %.lr.ph ]
  call void @systable_endscan(ptr noundef %3) #6
  call void @table_close(ptr noundef %2, i32 noundef 1) #6
  call void @llvm.lifetime.end.p0(i64 72, ptr nonnull %1) #6
  ret ptr %.0.lcssa
}